target datalayout = "e-m:e-p270:32:32-p271:32:32-p272:64:64-i64:64-i128:128-f80:128-n8:16:32:64-S128"
target triple = "x86_64-pc-linux-gnu"

%struct.SpectralBandReplication = type { i32, i32, i32, i32, i32, i32, i32, %struct.SpectrumParameters, i32, i32, i32, i32, i32, i32, i32, [5 x i32], [2 x i32], [2 x i32], i32, i32, [4 x i8], [2 x %struct.SBRData], %struct.PSContext, [2 x i32], i32, i32, [49 x i16], [25 x i16], [49 x i16], [6 x i16], [30 x i16], i32, [6 x i8], [6 x i8], [32 x [40 x [2 x float]]], [64 x [40 x [2 x float]]], [2 x [2 x [38 x [64 x float]]]], [64 x [2 x float]], [64 x [2 x float]], [8 x [48 x float]], [8 x [48 x float]], [8 x [48 x i8]], [8 x [48 x float]], [8 x [48 x float]], [8 x [48 x float]], [8 x [48 x float]], [5 x [64 x float]], ptr, ptr, ptr, ptr, %struct.SBRDSPContext, %struct.AACSBRContext }
%struct.SpectrumParameters = type { i8, i8, i8, i8, i8, i8 }
%struct.SBRData = type { i32, i32, i32, [9 x i8], i32, [9 x i8], [2 x i8], [2 x [5 x i8]], [48 x i8], i32, [8 x i8], [2304 x float], [1312 x float], i32, [2 x i32], [5 x float], [2 x [32 x [32 x [2 x float]]]], i32, [12 x i8], [2 x [38 x [64 x [2 x float]]]], [42 x [48 x float]], [42 x [48 x float]], [9 x [48 x i8]], [9 x [48 x i8]], [9 x [48 x float]], [3 x [5 x i8]], [3 x [5 x float]], [9 x i8], i8, [3 x i8], i32, i32, [6 x i8], [6 x i8] }
%struct.PSContext = type { %struct.PSCommonContext, [4 x i8], [5 x [44 x [2 x float]]], [91 x [46 x [2 x float]]], [50 x [3 x [37 x [2 x float]]]], [34 x float], [8 x i8], [34 x float], [8 x i8], [34 x float], [8 x i8], [2 x [6 x [34 x float]]], [2 x [6 x [34 x float]]], [2 x [6 x [34 x float]]], [2 x [6 x [34 x float]]], [91 x [32 x [2 x float]]], [91 x [32 x [2 x float]]], [34 x i8], [34 x i8], %struct.PSDSPContext, [8 x i8] }
%struct.PSCommonContext = type { i32, i32, i32, i32, i32, i32, i32, i32, i32, i32, i32, i32, i32, [6 x i32], [5 x [34 x i8]], [5 x [34 x i8]], [5 x [34 x i8]], [5 x [34 x i8]], i32, i32 }
%struct.PSDSPContext = type { ptr, ptr, ptr, ptr, ptr, ptr, [2 x ptr] }
%struct.SBRDSPContext = type { ptr, ptr, ptr, ptr, ptr, ptr, ptr, ptr, ptr, ptr, [4 x ptr] }
%struct.AACSBRContext = type { ptr, ptr, ptr, ptr }
%struct.GetBitContext = type { ptr, ptr, i32, i32, i32 }

; Function Attrs: inlinehint nounwind uwtable
define internal i32 @get_bits1(ptr noundef %0) #4 {
  %2 = alloca ptr, align 8
  %3 = alloca i32, align 4
  %4 = alloca i8, align 1
  store ptr %0, ptr %2, align 8, !tbaa !45
  call void @llvm.lifetime.start.p0(i64 4, ptr %3) #12
  %5 = load ptr, ptr %2, align 8, !tbaa !45
  %6 = getelementptr inbounds nuw %struct.GetBitContext, ptr %5, i32 0, i32 2
  %7 = load i32, ptr %6, align 8, !tbaa !69
  store i32 %7, ptr %3, align 4, !tbaa !12
  call void @llvm.lifetime.start.p0(i64 1, ptr %4) #12
  %8 = load ptr, ptr %2, align 8, !tbaa !45
  %9 = getelementptr inbounds nuw %struct.GetBitContext, ptr %8, i32 0, i32 0
  %10 = load ptr, ptr %9, align 8, !tbaa !72
  %11 = load i32, ptr %3, align 4, !tbaa !12
  %12 = lshr i32 %11, 3
  %13 = zext i32 %12 to i64
  %14 = getelementptr inbounds nuw i8, ptr %10, i64 %13
  %15 = load i8, ptr %14, align 1, !tbaa !20
  store i8 %15, ptr %4, align 1, !tbaa !20
  %16 = load i32, ptr %3, align 4, !tbaa !12
  %17 = and i32 %16, 7
  %18 = load i8, ptr %4, align 1, !tbaa !20
  %19 = zext i8 %18 to i32
  %20 = shl i32 %19, %17
  %21 = trunc i32 %20 to i8
  store i8 %21, ptr %4, align 1, !tbaa !20
  %22 = load i8, ptr %4, align 1, !tbaa !20
  %23 = zext i8 %22 to i32
  %24 = ashr i32 %23, 7
  %25 = trunc i32 %24 to i8
  store i8 %25, ptr %4, align 1, !tbaa !20
  %26 = load ptr, ptr %2, align 8, !tbaa !45
  %27 = getelementptr inbounds nuw %struct.GetBitContext, ptr %26, i32 0, i32 2
  %28 = load i32, ptr %27, align 8, !tbaa !69
  %29 = load ptr, ptr %2, align 8, !tbaa !45
  %30 = getelementptr inbounds nuw %struct.GetBitContext, ptr %29, i32 0, i32 4
  %31 = load i32, ptr %30, align 8, !tbaa !71
  %32 = icmp slt i32 %28, %31
  br i1 %32, label %33, label %36

33:                                               ; preds = %1
  %34 = load i32, ptr %3, align 4, !tbaa !12
  %35 = add i32 %34, 1
  store i32 %35, ptr %3, align 4, !tbaa !12
  br label %36

36:                                               ; preds = %33, %1
  %37 = load i32, ptr %3, align 4, !tbaa !12
  %38 = load ptr, ptr %2, align 8, !tbaa !45
  %39 = getelementptr inbounds nuw %struct.GetBitContext, ptr %38, i32 0, i32 2
  store i32 %37, ptr %39, align 8, !tbaa !69
  %40 = load i8, ptr %4, align 1, !tbaa !20
  %41 = zext i8 %40 to i32
  call void @llvm.lifetime.end.p0(i64 1, ptr %4) #12
  call void @llvm.lifetime.end.p0(i64 4, ptr %3) #12
  ret i32 %41
}

; Function Attrs: alwaysinline nounwind uwtable
define internal void @get_bits1_vector(ptr noundef %0, ptr noundef %1, i32 noundef %2) #7 {
  %4 = alloca ptr, align 8
  %5 = alloca ptr, align 8
  %6 = alloca i32, align 4
  %7 = alloca i32, align 4
  store ptr %0, ptr %4, align 8, !tbaa !45
  store ptr %1, ptr %5, align 8, !tbaa !48
  store i32 %2, ptr %6, align 4, !tbaa !12
  call void @llvm.lifetime.start.p0(i64 4, ptr %7) #12
  store i32 0, ptr %7, align 4, !tbaa !12
  br label %8

8:                                                ; preds = %20, %3
  %9 = load i32, ptr %7, align 4, !tbaa !12
  %10 = load i32, ptr %6, align 4, !tbaa !12
  %11 = icmp slt i32 %9, %10
  br i1 %11, label %12, label %23

12:                                               ; preds = %8
  %13 = load ptr, ptr %4, align 8, !tbaa !45
  %14 = call i32 @get_bits1(ptr noundef %13)
  %15 = trunc i32 %14 to i8
  %16 = load ptr, ptr %5, align 8, !tbaa !48
  %17 = load i32, ptr %7, align 4, !tbaa !12
  %18 = sext i32 %17 to i64
  %19 = getelementptr inbounds i8, ptr %16, i64 %18
  store i8 %15, ptr %19, align 1, !tbaa !20
  br label %20

20:                                               ; preds = %12
  %21 = load i32, ptr %7, align 4, !tbaa !12
  %22 = add nsw i32 %21, 1
  store i32 %22, ptr %7, align 4, !tbaa !12
  br label %8, !llvm.loop !144

23:                                               ; preds = %8
  call void @llvm.lifetime.end.p0(i64 4, ptr %7) #12
  ret void
}

; Function Attrs: nounwind uwtable
define internal void @read_sbr_dtdf(ptr noundef %0, ptr noundef %1, ptr noundef %2, i32 noundef %3) #3 {
  %5 = alloca ptr, align 8
  %6 = alloca ptr, align 8
  %7 = alloca ptr, align 8
  %8 = alloca i32, align 4
  store ptr %0, ptr %5, align 8, !tbaa !18
  store ptr %1, ptr %6, align 8, !tbaa !45
  store ptr %2, ptr %7, align 8, !tbaa !116
  store i32 %3, ptr %8, align 4, !tbaa !12
  %9 = load ptr, ptr %5, align 8, !tbaa !18
  %10 = getelementptr inbounds nuw %struct.SpectralBandReplication, ptr %9, i32 0, i32 4
  %11 = load i32, ptr %10, align 16, !tbaa !35
  %12 = icmp ne i32 %11, 0
  br i1 %12, label %13, label %60

13:                                               ; preds = %4
  %14 = load i32, ptr %8, align 4, !tbaa !12
  %15 = icmp ne i32 %14, 0
  br i1 %15, label %16, label %28

16:                                               ; preds = %13
  %17 = load ptr, ptr %7, align 8, !tbaa !116
  %18 = getelementptr inbounds nuw %struct.SBRData, ptr %17, i32 0, i32 5
  %19 = getelementptr inbounds [9 x i8], ptr %18, i64 0, i64 0
  store i8 0, ptr %19, align 4, !tbaa !20
  %20 = load ptr, ptr %6, align 8, !tbaa !45
  %21 = load ptr, ptr %7, align 8, !tbaa !116
  %22 = getelementptr inbounds nuw %struct.SBRData, ptr %21, i32 0, i32 5
  %23 = getelementptr inbounds [9 x i8], ptr %22, i64 0, i64 1
  %24 = load ptr, ptr %7, align 8, !tbaa !116
  %25 = getelementptr inbounds nuw %struct.SBRData, ptr %24, i32 0, i32 2
  %26 = load i32, ptr %25, align 8, !tbaa !118
  %27 = sub i32 %26, 1
  call void @get_bits1_vector(ptr noundef %20, ptr noundef %23, i32 noundef %27)
  br label %36

28:                                               ; preds = %13
  %29 = load ptr, ptr %6, align 8, !tbaa !45
  %30 = load ptr, ptr %7, align 8, !tbaa !116
  %31 = getelementptr inbounds nuw %struct.SBRData, ptr %30, i32 0, i32 5
  %32 = getelementptr inbounds [9 x i8], ptr %31, i64 0, i64 0
  %33 = load ptr, ptr %7, align 8, !tbaa !116
  %34 = getelementptr inbounds nuw %struct.SBRData, ptr %33, i32 0, i32 2
  %35 = load i32, ptr %34, align 8, !tbaa !118
  call void @get_bits1_vector(ptr noundef %29, ptr noundef %32, i32 noundef %35)
  br label %36

36:                                               ; preds = %28, %16
  %37 = load i32, ptr %8, align 4, !tbaa !12
  %38 = icmp ne i32 %37, 0
  br i1 %38, label %39, label %51

39:                                               ; preds = %36
  %40 = load ptr, ptr %7, align 8, !tbaa !116
  %41 = getelementptr inbounds nuw %struct.SBRData, ptr %40, i32 0, i32 6
  %42 = getelementptr inbounds [2 x i8], ptr %41, i64 0, i64 0
  store i8 0, ptr %42, align 1, !tbaa !20
  %43 = load ptr, ptr %6, align 8, !tbaa !45
  %44 = load ptr, ptr %7, align 8, !tbaa !116
  %45 = getelementptr inbounds nuw %struct.SBRData, ptr %44, i32 0, i32 6
  %46 = getelementptr inbounds [2 x i8], ptr %45, i64 0, i64 1
  %47 = load ptr, ptr %7, align 8, !tbaa !116
  %48 = getelementptr inbounds nuw %struct.SBRData, ptr %47, i32 0, i32 4
  %49 = load i32, ptr %48, align 8, !tbaa !130
  %50 = sub i32 %49, 1
  call void @get_bits1_vector(ptr noundef %43, ptr noundef %46, i32 noundef %50)
  br label %59

51:                                               ; preds = %36
  %52 = load ptr, ptr %6, align 8, !tbaa !45
  %53 = load ptr, ptr %7, align 8, !tbaa !116
  %54 = getelementptr inbounds nuw %struct.SBRData, ptr %53, i32 0, i32 6
  %55 = getelementptr inbounds [2 x i8], ptr %54, i64 0, i64 0
  %56 = load ptr, ptr %7, align 8, !tbaa !116
  %57 = getelementptr inbounds nuw %struct.SBRData, ptr %56, i32 0, i32 4
  %58 = load i32, ptr %57, align 8, !tbaa !130
  call void @get_bits1_vector(ptr noundef %52, ptr noundef %55, i32 noundef %58)
  br label %59

59:                                               ; preds = %51, %39
  br label %75

60:                                               ; preds = %4
  %61 = load ptr, ptr %6, align 8, !tbaa !45
  %62 = load ptr, ptr %7, align 8, !tbaa !116
  %63 = getelementptr inbounds nuw %struct.SBRData, ptr %62, i32 0, i32 5
  %64 = getelementptr inbounds [9 x i8], ptr %63, i64 0, i64 0
  %65 = load ptr, ptr %7, align 8, !tbaa !116
  %66 = getelementptr inbounds nuw %struct.SBRData, ptr %65, i32 0, i32 2
  %67 = load i32, ptr %66, align 8, !tbaa !118
  call void @get_bits1_vector(ptr noundef %61, ptr noundef %64, i32 noundef %67)
  %68 = load ptr, ptr %6, align 8, !tbaa !45
  %69 = load ptr, ptr %7, align 8, !tbaa !116
  %70 = getelementptr inbounds nuw %struct.SBRData, ptr %69, i32 0, i32 6
  %71 = getelementptr inbounds [2 x i8], ptr %70, i64 0, i64 0
  %72 = load ptr, ptr %7, align 8, !tbaa !116
  %73 = getelementptr inbounds nuw %struct.SBRData, ptr %72, i32 0, i32 4
  %74 = load i32, ptr %73, align 8, !tbaa !130
  call void @get_bits1_vector(ptr noundef %68, ptr noundef %71, i32 noundef %74)
  br label %75

75:                                               ; preds = %60, %59
  ret void
}