; Function Attrs: nofree norecurse nosync nounwind memory(read, argmem: readwrite, inaccessiblemem: none) uwtable
define internal fastcc void @read_sbr_dtdf(i32 %.16.val, ptr noundef captures(none) %0, ptr noundef captures(none) %1, i32 noundef %2) unnamed_addr #8 {
  %.not = icmp eq i32 %.16.val, 0
  br i1 %.not, label %98, label %4

4:                                                ; preds = %3
  %.not22 = icmp eq i32 %2, 0
  %5 = getelementptr inbounds nuw i8, ptr %1, i64 28
  br i1 %.not22, label %30, label %6

6:                                                ; preds = %4
  store i8 0, ptr %5, align 4, !tbaa !9
  %7 = getelementptr inbounds nuw i8, ptr %1, i64 29
  %8 = getelementptr inbounds nuw i8, ptr %1, i64 8
  %9 = load i32, ptr %8, align 8, !tbaa !56
  %10 = add i32 %9, -1
  %11 = icmp sgt i32 %10, 0
  br i1 %11, label %.lr.ph, label %get_bits1_vector.exit

.lr.ph:                                           ; preds = %6
  %12 = getelementptr inbounds nuw i8, ptr %0, i64 16
  %13 = getelementptr inbounds nuw i8, ptr %0, i64 24
  %wide.trip.count = zext nneg i32 %10 to i64
  br label %14

14:                                               ; preds = %.lr.ph, %14
  %indvars.iv = phi i64 [ 0, %.lr.ph ], [ %indvars.iv.next, %14 ]
  %15 = load i32, ptr %12, align 8, !tbaa !35
  %16 = load ptr, ptr %0, align 8, !tbaa !49
  %17 = lshr i32 %15, 3
  %18 = zext nneg i32 %17 to i64
  %19 = getelementptr inbounds nuw i8, ptr %16, i64 %18
  %20 = load i8, ptr %19, align 1, !tbaa !9
  %21 = load i32, ptr %13, align 8, !tbaa !37
  %22 = icmp slt i32 %15, %21
  %23 = zext i1 %22 to i32
  %spec.select.i = add i32 %15, %23
  %24 = zext i8 %20 to i32
  %25 = and i32 %15, 7
  %26 = shl nuw nsw i32 %24, %25
  store i32 %spec.select.i, ptr %12, align 8, !tbaa !35
  %27 = trunc i32 %26 to i8
  %28 = lshr i8 %27, 7
  %29 = getelementptr inbounds nuw i8, ptr %7, i64 %indvars.iv
  store i8 %28, ptr %29, align 1, !tbaa !9
  %indvars.iv.next = add nuw nsw i64 %indvars.iv, 1
  %exitcond.not = icmp eq i64 %indvars.iv.next, %wide.trip.count
  br i1 %exitcond.not, label %get_bits1_vector.exit, label %14, !llvm.loop !54

30:                                               ; preds = %4
  %31 = getelementptr inbounds nuw i8, ptr %1, i64 8
  %32 = load i32, ptr %31, align 8, !tbaa !56
  %33 = icmp sgt i32 %32, 0
  br i1 %33, label %.lr.ph6, label %.loopexit

.lr.ph6:                                          ; preds = %30
  %34 = getelementptr inbounds nuw i8, ptr %0, i64 16
  %35 = getelementptr inbounds nuw i8, ptr %0, i64 24
  %wide.trip.count22 = zext nneg i32 %32 to i64
  br label %36

36:                                               ; preds = %.lr.ph6, %36
  %indvars.iv19 = phi i64 [ 0, %.lr.ph6 ], [ %indvars.iv.next20, %36 ]
  %37 = load i32, ptr %34, align 8, !tbaa !35
  %38 = load ptr, ptr %0, align 8, !tbaa !49
  %39 = lshr i32 %37, 3
  %40 = zext nneg i32 %39 to i64
  %41 = getelementptr inbounds nuw i8, ptr %38, i64 %40
  %42 = load i8, ptr %41, align 1, !tbaa !9
  %43 = load i32, ptr %35, align 8, !tbaa !37
  %44 = icmp slt i32 %37, %43
  %45 = zext i1 %44 to i32
  %spec.select.i33 = add i32 %37, %45
  %46 = zext i8 %42 to i32
  %47 = and i32 %37, 7
  %48 = shl nuw nsw i32 %46, %47
  store i32 %spec.select.i33, ptr %34, align 8, !tbaa !35
  %49 = trunc i32 %48 to i8
  %50 = lshr i8 %49, 7
  %51 = getelementptr inbounds nuw i8, ptr %5, i64 %indvars.iv19
  store i8 %50, ptr %51, align 1, !tbaa !9
  %indvars.iv.next20 = add nuw nsw i64 %indvars.iv19, 1
  %exitcond23.not = icmp eq i64 %indvars.iv.next20, %wide.trip.count22
  br i1 %exitcond23.not, label %.loopexit, label %36, !llvm.loop !54

get_bits1_vector.exit:                            ; preds = %14, %6
  %52 = getelementptr inbounds nuw i8, ptr %1, i64 37
  store i8 0, ptr %52, align 1, !tbaa !9
  %53 = getelementptr inbounds nuw i8, ptr %1, i64 38
  %54 = getelementptr inbounds nuw i8, ptr %1, i64 24
  %55 = load i32, ptr %54, align 8, !tbaa !59
  %56 = add i32 %55, -1
  %57 = icmp sgt i32 %56, 0
  br i1 %57, label %.lr.ph8, label %get_bits1_vector.exit26

.lr.ph8:                                          ; preds = %get_bits1_vector.exit
  %58 = getelementptr inbounds nuw i8, ptr %0, i64 16
  %59 = getelementptr inbounds nuw i8, ptr %0, i64 24
  %wide.trip.count27 = zext nneg i32 %56 to i64
  br label %60

60:                                               ; preds = %.lr.ph8, %60
  %indvars.iv24 = phi i64 [ 0, %.lr.ph8 ], [ %indvars.iv.next25, %60 ]
  %61 = load i32, ptr %58, align 8, !tbaa !35
  %62 = load ptr, ptr %0, align 8, !tbaa !49
  %63 = lshr i32 %61, 3
  %64 = zext nneg i32 %63 to i64
  %65 = getelementptr inbounds nuw i8, ptr %62, i64 %64
  %66 = load i8, ptr %65, align 1, !tbaa !9
  %67 = load i32, ptr %59, align 8, !tbaa !37
  %68 = icmp slt i32 %61, %67
  %69 = zext i1 %68 to i32
  %spec.select.i34 = add i32 %61, %69
  %70 = zext i8 %66 to i32
  %71 = and i32 %61, 7
  %72 = shl nuw nsw i32 %70, %71
  store i32 %spec.select.i34, ptr %58, align 8, !tbaa !35
  %73 = trunc i32 %72 to i8
  %74 = lshr i8 %73, 7
  %75 = getelementptr inbounds nuw i8, ptr %53, i64 %indvars.iv24
  store i8 %74, ptr %75, align 1, !tbaa !9
  %indvars.iv.next25 = add nuw nsw i64 %indvars.iv24, 1
  %exitcond28.not = icmp eq i64 %indvars.iv.next25, %wide.trip.count27
  br i1 %exitcond28.not, label %get_bits1_vector.exit26, label %60, !llvm.loop !54

.loopexit:                                        ; preds = %36, %30
  %76 = getelementptr inbounds nuw i8, ptr %1, i64 37
  %77 = getelementptr inbounds nuw i8, ptr %1, i64 24
  %78 = load i32, ptr %77, align 8, !tbaa !59
  %79 = icmp sgt i32 %78, 0
  br i1 %79, label %.lr.ph10, label %get_bits1_vector.exit26

.lr.ph10:                                         ; preds = %.loopexit
  %80 = getelementptr inbounds nuw i8, ptr %0, i64 16
  %81 = getelementptr inbounds nuw i8, ptr %0, i64 24
  %wide.trip.count32 = zext nneg i32 %78 to i64
  br label %82

82:                                               ; preds = %.lr.ph10, %82
  %indvars.iv29 = phi i64 [ 0, %.lr.ph10 ], [ %indvars.iv.next30, %82 ]
  %83 = load i32, ptr %80, align 8, !tbaa !35
  %84 = load ptr, ptr %0, align 8, !tbaa !49
  %85 = lshr i32 %83, 3
  %86 = zext nneg i32 %85 to i64
  %87 = getelementptr inbounds nuw i8, ptr %84, i64 %86
  %88 = load i8, ptr %87, align 1, !tbaa !9
  %89 = load i32, ptr %81, align 8, !tbaa !37
  %90 = icmp slt i32 %83, %89
  %91 = zext i1 %90 to i32
  %spec.select.i35 = add i32 %83, %91
  %92 = zext i8 %88 to i32
  %93 = and i32 %83, 7
  %94 = shl nuw nsw i32 %92, %93
  store i32 %spec.select.i35, ptr %80, align 8, !tbaa !35
  %95 = trunc i32 %94 to i8
  %96 = lshr i8 %95, 7
  %97 = getelementptr inbounds nuw i8, ptr %76, i64 %indvars.iv29
  store i8 %96, ptr %97, align 1, !tbaa !9
  %indvars.iv.next30 = add nuw nsw i64 %indvars.iv29, 1
  %exitcond33.not = icmp eq i64 %indvars.iv.next30, %wide.trip.count32
  br i1 %exitcond33.not, label %get_bits1_vector.exit26, label %82, !llvm.loop !54

98:                                               ; preds = %3
  %99 = getelementptr inbounds nuw i8, ptr %1, i64 28
  %100 = getelementptr inbounds nuw i8, ptr %1, i64 8
  %101 = load i32, ptr %100, align 8, !tbaa !56
  %102 = icmp sgt i32 %101, 0
  br i1 %102, label %.lr.ph12, label %get_bits1_vector.exit30

.lr.ph12:                                         ; preds = %98
  %103 = getelementptr inbounds nuw i8, ptr %0, i64 16
  %104 = getelementptr inbounds nuw i8, ptr %0, i64 24
  %wide.trip.count37 = zext nneg i32 %101 to i64
  br label %105

105:                                              ; preds = %.lr.ph12, %105
  %indvars.iv34 = phi i64 [ 0, %.lr.ph12 ], [ %indvars.iv.next35, %105 ]
  %106 = load i32, ptr %103, align 8, !tbaa !35
  %107 = load ptr, ptr %0, align 8, !tbaa !49
  %108 = lshr i32 %106, 3
  %109 = zext nneg i32 %108 to i64
  %110 = getelementptr inbounds nuw i8, ptr %107, i64 %109
  %111 = load i8, ptr %110, align 1, !tbaa !9
  %112 = load i32, ptr %104, align 8, !tbaa !37
  %113 = icmp slt i32 %106, %112
  %114 = zext i1 %113 to i32
  %spec.select.i36 = add i32 %106, %114
  %115 = zext i8 %111 to i32
  %116 = and i32 %106, 7
  %117 = shl nuw nsw i32 %115, %116
  store i32 %spec.select.i36, ptr %103, align 8, !tbaa !35
  %118 = trunc i32 %117 to i8
  %119 = lshr i8 %118, 7
  %120 = getelementptr inbounds nuw i8, ptr %99, i64 %indvars.iv34
  store i8 %119, ptr %120, align 1, !tbaa !9
  %indvars.iv.next35 = add nuw nsw i64 %indvars.iv34, 1
  %exitcond38.not = icmp eq i64 %indvars.iv.next35, %wide.trip.count37
  br i1 %exitcond38.not, label %get_bits1_vector.exit30, label %105, !llvm.loop !54

get_bits1_vector.exit30:                          ; preds = %105, %98
  %121 = getelementptr inbounds nuw i8, ptr %1, i64 37
  %122 = getelementptr inbounds nuw i8, ptr %1, i64 24
  %123 = load i32, ptr %122, align 8, !tbaa !59
  %124 = icmp sgt i32 %123, 0
  br i1 %124, label %.lr.ph14, label %get_bits1_vector.exit26

.lr.ph14:                                         ; preds = %get_bits1_vector.exit30
  %125 = getelementptr inbounds nuw i8, ptr %0, i64 16
  %126 = getelementptr inbounds nuw i8, ptr %0, i64 24
  %wide.trip.count42 = zext nneg i32 %123 to i64
  br label %127

127:                                              ; preds = %.lr.ph14, %127
  %indvars.iv39 = phi i64 [ 0, %.lr.ph14 ], [ %indvars.iv.next40, %127 ]
  %128 = load i32, ptr %125, align 8, !tbaa !35
  %129 = load ptr, ptr %0, align 8, !tbaa !49
  %130 = lshr i32 %128, 3
  %131 = zext nneg i32 %130 to i64
  %132 = getelementptr inbounds nuw i8, ptr %129, i64 %131
  %133 = load i8, ptr %132, align 1, !tbaa !9
  %134 = load i32, ptr %126, align 8, !tbaa !37
  %135 = icmp slt i32 %128, %134
  %136 = zext i1 %135 to i32
  %spec.select.i37 = add i32 %128, %136
  %137 = zext i8 %133 to i32
  %138 = and i32 %128, 7
  %139 = shl nuw nsw i32 %137, %138
  store i32 %spec.select.i37, ptr %125, align 8, !tbaa !35
  %140 = trunc i32 %139 to i8
  %141 = lshr i8 %140, 7
  %142 = getelementptr inbounds nuw i8, ptr %121, i64 %indvars.iv39
  store i8 %141, ptr %142, align 1, !tbaa !9
  %indvars.iv.next40 = add nuw nsw i64 %indvars.iv39, 1
  %exitcond43.not = icmp eq i64 %indvars.iv.next40, %wide.trip.count42
  br i1 %exitcond43.not, label %get_bits1_vector.exit26, label %127, !llvm.loop !54

get_bits1_vector.exit26:                          ; preds = %60, %82, %127, %get_bits1_vector.exit, %.loopexit, %get_bits1_vector.exit30
  ret void
}